target datalayout = "e-m:e-p270:32:32-p271:32:32-p272:64:64-i64:64-i128:128-f80:128-n8:16:32:64-S128"
target triple = "x86_64-unknown-linux-gnu"

%struct.sockaddr_in = type { i16, i16, %struct.in_addr, [8 x i8] }
%struct.in_addr = type { i32 }
%struct.NetSocketState = type { %struct.NetClientState, i32, i32, %struct.SocketReadState, i32, %struct.sockaddr_in, ptr, i8, i8 }
%struct.NetClientState = type { ptr, i32, %union.anon.1, ptr, ptr, ptr, ptr, [256 x i8], i8, ptr, i32, i8, i32, i32, i8, i8, i8, %union.anon.2 }
%union.anon.1 = type { %struct.QTailQLink }
%struct.QTailQLink = type { ptr, ptr }
%union.anon.2 = type { %struct.QTailQLink }
%struct.SocketReadState = type { i32, i8, i32, i32, i32, [69632 x i8], ptr }

@.str.20 = private unnamed_addr constant [14 x i8] c"socket: fd=%d\00", align 1

; Function Attrs: nounwind sspstrong uwtable
define internal void @net_socket_update_fd_handler(ptr noundef %s) #0 {
entry:
  %s.addr = alloca ptr, align 8
  store ptr %s, ptr %s.addr, align 8
  %0 = load ptr, ptr %s.addr, align 8
  %fd = getelementptr inbounds %struct.NetSocketState, ptr %0, i32 0, i32 2
  %1 = load i32, ptr %fd, align 4
  %2 = load ptr, ptr %s.addr, align 8
  %read_poll = getelementptr inbounds %struct.NetSocketState, ptr %2, i32 0, i32 7
  %3 = load i8, ptr %read_poll, align 8
  %tobool = trunc i8 %3 to i1
  br i1 %tobool, label %cond.true, label %cond.false

cond.true:                                        ; preds = %entry
  %4 = load ptr, ptr %s.addr, align 8
  %send_fn = getelementptr inbounds %struct.NetSocketState, ptr %4, i32 0, i32 6
  %5 = load ptr, ptr %send_fn, align 8
  br label %cond.end

cond.false:                                       ; preds = %entry
  br label %cond.end

cond.end:                                         ; preds = %cond.false, %cond.true
  %cond = phi ptr [ %5, %cond.true ], [ null, %cond.false ]
  %6 = load ptr, ptr %s.addr, align 8
  %write_poll = getelementptr inbounds %struct.NetSocketState, ptr %6, i32 0, i32 8
  %7 = load i8, ptr %write_poll, align 1
  %tobool1 = trunc i8 %7 to i1
  %cond2 = select i1 %tobool1, ptr @net_socket_writable, ptr null
  %8 = load ptr, ptr %s.addr, align 8
  call void @qemu_set_fd_handler(i32 noundef %1, ptr noundef %cond, ptr noundef %cond2, ptr noundef %8)
  ret void
}

; Function Attrs: nounwind sspstrong uwtable
define internal void @net_socket_read_poll(ptr noundef %s, i1 noundef zeroext %enable) #0 {
entry:
  %s.addr = alloca ptr, align 8
  %enable.addr = alloca i8, align 1
  store ptr %s, ptr %s.addr, align 8
  %frombool = zext i1 %enable to i8
  store i8 %frombool, ptr %enable.addr, align 1
  %0 = load i8, ptr %enable.addr, align 1
  %tobool = trunc i8 %0 to i1
  %1 = load ptr, ptr %s.addr, align 8
  %read_poll = getelementptr inbounds %struct.NetSocketState, ptr %1, i32 0, i32 7
  %frombool1 = zext i1 %tobool to i8
  store i8 %frombool1, ptr %read_poll, align 8
  %2 = load ptr, ptr %s.addr, align 8
  call void @net_socket_update_fd_handler(ptr noundef %2)
  ret void
}

; Function Attrs: nounwind sspstrong uwtable
define internal void @net_socket_connect(ptr noundef %opaque) #0 {
entry:
  %opaque.addr = alloca ptr, align 8
  %s = alloca ptr, align 8
  store ptr %opaque, ptr %opaque.addr, align 8
  %0 = load ptr, ptr %opaque.addr, align 8
  store ptr %0, ptr %s, align 8
  %1 = load ptr, ptr %s, align 8
  %send_fn = getelementptr inbounds %struct.NetSocketState, ptr %1, i32 0, i32 6
  store ptr @net_socket_send, ptr %send_fn, align 8
  %2 = load ptr, ptr %s, align 8
  call void @net_socket_read_poll(ptr noundef %2, i1 noundef zeroext true)
  ret void
}

; Function Attrs: nounwind sspstrong uwtable
define internal ptr @net_socket_fd_init_stream(ptr noundef %peer, ptr noundef %model, ptr noundef %name, i32 noundef %fd, i32 noundef %is_connected) #0 {
entry:
  %peer.addr = alloca ptr, align 8
  %model.addr = alloca ptr, align 8
  %name.addr = alloca ptr, align 8
  %fd.addr = alloca i32, align 4
  %is_connected.addr = alloca i32, align 4
  %nc = alloca ptr, align 8
  %s = alloca ptr, align 8
  %tmp = alloca ptr, align 8
  %__mptr = alloca ptr, align 8
  %tmp1 = alloca ptr, align 8
  store ptr %peer, ptr %peer.addr, align 8
  store ptr %model, ptr %model.addr, align 8
  store ptr %name, ptr %name.addr, align 8
  store i32 %fd, ptr %fd.addr, align 4
  store i32 %is_connected, ptr %is_connected.addr, align 4
  %0 = load ptr, ptr %peer.addr, align 8
  %1 = load ptr, ptr %model.addr, align 8
  %2 = load ptr, ptr %name.addr, align 8
  %call = call ptr @qemu_new_net_client(ptr noundef @net_socket_info, ptr noundef %0, ptr noundef %1, ptr noundef %2)
  store ptr %call, ptr %nc, align 8
  %3 = load ptr, ptr %nc, align 8
  %4 = load i32, ptr %fd.addr, align 4
  call void (ptr, ptr, ...) @qemu_set_info_str(ptr noundef %3, ptr noundef @.str.20, i32 noundef %4)
  %5 = load ptr, ptr %nc, align 8
  store ptr %5, ptr %__mptr, align 8
  %6 = load ptr, ptr %__mptr, align 8
  %add.ptr = getelementptr i8, ptr %6, i64 0
  store ptr %add.ptr, ptr %tmp1, align 8
  %7 = load ptr, ptr %tmp1, align 8
  store ptr %7, ptr %tmp, align 8
  %8 = load ptr, ptr %tmp, align 8
  store ptr %8, ptr %s, align 8
  %9 = load i32, ptr %fd.addr, align 4
  %10 = load ptr, ptr %s, align 8
  %fd2 = getelementptr inbounds %struct.NetSocketState, ptr %10, i32 0, i32 2
  store i32 %9, ptr %fd2, align 4
  %11 = load ptr, ptr %s, align 8
  %listen_fd = getelementptr inbounds %struct.NetSocketState, ptr %11, i32 0, i32 1
  store i32 -1, ptr %listen_fd, align 8
  %12 = load ptr, ptr %s, align 8
  %rs = getelementptr inbounds %struct.NetSocketState, ptr %12, i32 0, i32 3
  call void @net_socket_rs_init(ptr noundef %rs, ptr noundef @net_socket_rs_finalize, i1 noundef zeroext false)
  %13 = load i32, ptr %fd.addr, align 4
  %call3 = call i32 @socket_set_nodelay(i32 noundef %13)
  %14 = load i32, ptr %is_connected.addr, align 4
  %tobool = icmp ne i32 %14, 0
  br i1 %tobool, label %if.then, label %if.else

if.then:                                          ; preds = %entry
  %15 = load ptr, ptr %s, align 8
  call void @net_socket_connect(ptr noundef %15)
  br label %if.end

if.else:                                          ; preds = %entry
  %16 = load ptr, ptr %s, align 8
  %fd4 = getelementptr inbounds %struct.NetSocketState, ptr %16, i32 0, i32 2
  %17 = load i32, ptr %fd4, align 4
  %18 = load ptr, ptr %s, align 8
  call void @qemu_set_fd_handler(i32 noundef %17, ptr noundef null, ptr noundef @net_socket_connect, ptr noundef %18)
  br label %if.end

if.end:                                           ; preds = %if.else, %if.then
  %19 = load ptr, ptr %s, align 8
  ret ptr %19
}