; Function Attrs: nounwind sspstrong uwtable
define internal fastcc noundef ptr @net_socket_fd_init_stream(ptr noundef %peer, ptr noundef %name, i32 noundef range(i32 0, -1) %fd, i32 noundef range(i32 0, 2) %is_connected) unnamed_addr #0 {
entry:
  %call = tail call ptr @qemu_new_net_client(ptr noundef nonnull @net_socket_info, ptr noundef %peer, ptr noundef nonnull @.str.5, ptr noundef %name) #8
  tail call void (ptr, ptr, ...) @qemu_set_info_str(ptr noundef %call, ptr noundef nonnull @.str.20, i32 noundef %fd) #8
  %fd2 = getelementptr inbounds nuw i8, ptr %call, i64 380
  store i32 %fd, ptr %fd2, align 4
  %listen_fd = getelementptr inbounds nuw i8, ptr %call, i64 376
  store i32 -1, ptr %listen_fd, align 8
  %rs = getelementptr inbounds nuw i8, ptr %call, i64 384
  tail call void @net_socket_rs_init(ptr noundef nonnull %rs, ptr noundef nonnull @net_socket_rs_finalize, i1 noundef zeroext false) #8
  %call3 = tail call i32 @socket_set_nodelay(i32 noundef %fd) #8
  %tobool.not = icmp eq i32 %is_connected, 0
  br i1 %tobool.not, label %if.else, label %if.then

if.then:                                          ; preds = %entry
  %send_fn.i = getelementptr inbounds nuw i8, ptr %call, i64 70072
  store ptr @net_socket_send, ptr %send_fn.i, align 8
  %read_poll.i.i = getelementptr inbounds nuw i8, ptr %call, i64 70080
  store i8 1, ptr %read_poll.i.i, align 8
  %0 = load i32, ptr %fd2, align 4
  %write_poll.i.i.i = getelementptr inbounds nuw i8, ptr %call, i64 70081
  %1 = load i8, ptr %write_poll.i.i.i, align 1
  %tobool1.i.i.i = trunc i8 %1 to i1
  %cond2.i.i.i = select i1 %tobool1.i.i.i, ptr @net_socket_writable, ptr null
  tail call void @qemu_set_fd_handler(i32 noundef %0, ptr noundef nonnull @net_socket_send, ptr noundef %cond2.i.i.i, ptr noundef nonnull %call) #8
  br label %if.end

if.else:                                          ; preds = %entry
  %2 = load i32, ptr %fd2, align 4
  tail call void @qemu_set_fd_handler(i32 noundef %2, ptr noundef null, ptr noundef nonnull @net_socket_connect, ptr noundef nonnull %call) #8
  br label %if.end

if.end:                                           ; preds = %if.else, %if.then
  ret ptr %call
}